((lp0
S'A'
p1
aS'B'
p2
aS'C'
p3
aS'D'
p4
aS'E'
p5
aS'F'
p6
aS'G'
p7
aS'H'
p8
aS'I'
p9
aS'K'
p10
aS'L'
p11
aS'M'
p12
aS'N'
p13
aS'O'
p14
aS'P'
p15
aS'Q'
p16
aS'R'
p17
aS'S'
p18
aS'T'
p19
aS'V'
p20
aS'W'
p21
aS'X'
p22
aS'Z'
p23
a(lp24
(dp25
g1
S'Ne mora te teneat, '
p26
sg3
S'Diva Thalia jubet, '
p27
sg2
S'Ne cunctare precor, '
p28
sg5
S'Eja agedum! lubeat, '
p29
sg4
S'Docta Thalia jubet, '
p30
sg7
S'Quod precor, ipse voles, '
p31
sg6
S'Quod peto, sponte voles, '
p32
sg9
S'Sit tibi chare placens, '
p33
sg8
S'Ne dedigneris, '
p34
sg10
S'Non detrectabis, '
p35
sg12
S'Te mora nulla liget, '
p36
sg11
S'Promptus, Amice, velis, '
p37
sg14
S'Ne grave fit, quaeso, '
p38
sg13
S'Haud erit ingratum, '
p39
sg16
S'Haud, credo remies, '
p40
sg15
S'Dignare obtestor, '
p41
sg18
S'Ne tibi displiceat, '
p42
sg17
S'Non tibi displiceat, '
p43
sg19
S'Praeses Apollo jubet, '
p44
sg21
S'Te mandat Phoebus, '
p45
sg20
S'Pieris alma jubet, '
p46
sg22
S'Sponte tua cupies, '
p47
sg23
S'Spero, non renues, '
p48
sa(dp49
g1
S'chartae perfringere gemmam,'
p50
sg3
S'tectis admittere chartam,'
p51
sg2
S'sua vincula demere chartae,'
p52
sg5
S'peregrinam evolvere chartam,'
p53
sg4
S'praesentem evolvere chartam,'
p54
sg7
S'percurrere lumine chartam,'
p55
sg6
S'concedere lumina chartae,'
p56
sg9
S'chartae perfringere ceram,'
p57
sg8
S'nostram acceptare tabellam,'
p58
sg10
S'chartam lustrare legendo,'
p59
sg12
S'lustrare legendo tabellam,'
p60
sg11
S'lustrare hanc lumine chartam,'
p61
sg14
S'vultum concedere chartae,'
p62
sg13
S'sua vincula tollere chartae,'
p63
sg16
S'sua vincula solvere chartae,'
p64
sg15
S'vultum indulgere tabellae,'
p65
sg18
S'sua vincula rumpere chartae,'
p66
sg17
S'quam cernis volvere chartam,'
p67
sg19
S'peregrinam volvere chartam,'
p68
sg21
S'sua tollere vincula tabellae,'
p69
sg20
S'nostrae dare lumina chartae,'
p70
sg22
S'concedere limina chartae,'
p71
sg23
S'praesentem volvere chartam,'
p72
sa(dp73
g1
S'Non ex ignotis, '
p74
sg3
S'Non ex Odrysiis, '
p75
sg2
S'Non ex ingratis, '
p76
sg5
S'Non ex Sarmaticis, '
p77
sg4
S'Non ex barbaricis, '
p78
sg7
S'Ex tibi jucundis, '
p79
sg6
S'E tibi jucundis, '
p80
sg9
S'Ex tibi dilectis, '
p81
sg8
S'E tibi dilectis, '
p82
sg10
S'E tibi ter charis, '
p83
sg12
S'Ex tibi sat notis, '
p84
sg11
S'Ex tibi pergratis, '
p85
sg14
S'Non ex invasis, '
p86
sg13
S'Non ex infaustis, '
p87
sg16
S'Non ex saedifragis, '
p88
sg15
S'Non ex Iliacis, '
p89
sg18
S'A tibi pergratis, '
p90
sg17
S'A tibi dilectis, '
p91
sg19
S'A tibi sat notis, '
p92
sg21
S'Neutiquam ab ignotis, '
p93
sg20
S'E fortunatis, '
p94
sg22
S'Ex non ignotis, '
p95
sg23
S'Ex non ingratis, '
p96
sa(dp97
g1
S'scribitur illa plagis.'
p98
sg3
S'advenit illa plagis.'
p99
sg2
S'mittitur illa plagis.'
p100
sg5
S'prodiit illa plagis.'
p101
sg4
S'devenit illa plagis.'
p102
sg7
S'et ea missa plagis.'
p103
sg6
S'hanc tibi mitto plagis.'
p104
sg9
S'crede, venire plagis.'
p105
sg8
S'et ea scripta plagis.'
p106
sg10
S'dat tibi penna plagis.'
p107
sg12
S'partibus illa venit.'
p108
sg11
S'tractibus illa venit.'
p109
sg14
S'finibus illa venit.'
p110
sg13
S'sedibus illa venit.'
p111
sg16
S'mittitur illa locis.'
p112
sg15
S'scribitur illa locis.'
p113
sg18
S'devenit illa locis.'
p114
sg17
S'advenit illa locis.'
p115
sg19
S'prodiit illa locis.'
p116
sg21
S'est ea missa locis.'
p117
sg20
S'hanc tibi mitto locis.'
p118
sg22
S'est ea scripta locis.'
p119
sg23
S'hanc tibi scribo locis.'
p120
sa(dp121
g1
S'Non tibi fatales '
p122
sg3
S'Non tibi bellicrepos '
p123
sg2
S'Non tibi funereos '
p124
sg5
S'Non importunos '
p125
sg4
S'Non infelices '
p126
sg7
S'Non aerumnosos '
p127
sg6
S'Non conclamatos '
p128
sg9
S'Non tibi terrificos '
p129
sg8
S'Non portentosos '
p130
sg10
S'Non tibi fatidicos '
p131
sg12
S'Non tibi mortiferos '
p132
sg11
S'Non injucundos '
p133
sg14
S'Non tibi damniferos '
p134
sg13
S'Non tibi fumestos '
p135
sg16
S'Non tibi ferales '
p136
sg15
S'Non cibi damnosos '
p137
sg18
S'Non tibi luctisonos '
p138
sg17
S'Non tibi praeproperos '
p139
sg19
S'Non tibi terribiles '
p140
sg21
S'Non plorabundos '
p141
sg20
S'Non tibi secretos '
p142
sg22
S'Non infestivos '
p143
sg23
S'Non inpermissos '
p144
sa(dp145
g1
S'depinget epistola questus '
p146
sg3
S'evolvet epistola questus '
p147
sg2
S'depinget epistola casus '
p148
sg5
S'describet epistola questus '
p149
sg4
S'evolvet epistola casus '
p150
sg7
S'narrabit epistola questus '
p151
sg6
S'describet epistola casus '
p152
sg9
S'memorabit epistola questus '
p153
sg8
S'narrabit epistola casus '
p154
sg10
S'memorabit epistola casus '
p155
sg12
S'exponet epistola questus '
p156
sg11
S'exponet epistola casus '
p157
sg14
S'effundet epistola casus '
p158
sg13
S'effundet epistola questus '
p159
sg16
S'mea narrat epistola casus '
p160
sg15
S'mea narrat epistola questus '
p161
sg18
S'mea pandet epistola casus '
p162
sg17
S'mea pandet epistola questus '
p163
sg19
S'referet mea littera questus '
p164
sg21
S'pandet mea littera questus '
p165
sg20
S'referet mea littera casus '
p166
sg22
S'depinget littera casus '
p167
sg23
S'describet littera questus '
p168
sa(dp169
g1
S'Mentis delicias '
p170
sg3
S'Laetitiae causas '
p171
sg2
S'Causas laetitiae '
p172
sg5
S'Cordis laetitias '
p173
sg4
S'Luctu delicias '
p174
sg7
S'Delicias luctu '
p175
sg6
S'Delicias animi '
p176
sg9
S'Laetitias mentis '
p177
sg8
S'Laetitias animi '
p178
sg10
S'Cordis delicias '
p179
sg12
S'Sanctas delicias '
p180
sg11
S'Sanas delicias '
p181
sg14
S'Cellae delicias '
p182
sg13
S'Delicias animae '
p183
sg16
S'Laetitias luctu '
p184
sg15
S'Delicias lachrymis '
p185
sg18
S'Sanctas illecebras, '
p186
sg17
S'Pacis delicias '
p187
sg19
S'Praefica laetitias '
p188
sg21
S'Castas illecebras '
p189
sg20
S'Tristis delicias '
p190
sg22
S'Tristibus illecebras '
p191
sg23
S'Delicias pacis '
p192
sa(dp193
g1
S'curat et illa tuas. '
p194
sg3
S'tollat ut illa tuas. '
p195
sg2
S'fervat et illa tuas. '
p196
sg5
S'solvat ut illa tuas. '
p197
sg4
S'non vetat illa tuas. '
p198
sg7
S'non necat illa tuas. '
p199
sg6
S'sternat ut illa tuas. '
p200
sg9
S'demat ut illa tuas. '
p201
sg8
S'diligit illa tuas. '
p202
sg10
S'perdat ut illa tuas. '
p203
sg12
S'non ego turbo tuas. '
p204
sg11
S'non ego tollo tuas. '
p205
sg14
S'pellat ut illa tuas. '
p206
sg13
S'non ego pello tuas. '
p207
sg16
S'deperit ipsa tuas. '
p208
sg15
S'non rapit illa tuas. '
p209
sg18
S'frangat ut illa tuas. '
p210
sg17
S'nam fovet ipsa tuas. '
p211
sg19
S'rumpat ut illa tuas. '
p212
sg21
S'dejiciendo tuas. '
p213
sg20
S'pulset ut illa tuas. '
p214
sg22
S'non ego demo, tuas. '
p215
sg23
S'fors remorando tuas. '
p216
sa(dp217
g1
S'Arx est nota tibi '
p218
sg3
S'Sat tibi nota domus '
p219
sg2
S'Grata tibi domus est '
p220
sg5
S'Est tibi grata domus '
p221
sg4
S'Est tibi nota domus '
p222
sg7
S'Nota tibi domus est '
p223
sg6
S'Est tibi chara domus '
p224
sg9
S'Chara tibi domus est '
p225
sg8
S'Est bene nota domus '
p226
sg10
S'Nota est aula tibi '
p227
sg12
S'Aedes chara tibi est '
p228
sg11
S'Aula tibi nota est '
p229
sg14
S'Cognita sat domus est '
p230
sg13
S'Aedes nota tibi est '
p231
sg16
S'Est sat nota domus '
p232
sg15
S'Est mea nota domus '
p233
sg18
S'Nota tibi patria est '
p234
sg17
S'Patria nota tibi est '
p235
sg19
S'Nostra domus nota est '
p236
sg21
S'Est dilecta domus '
p237
sg20
S'Cognita noftra domus '
p238
sg22
S'Est peramata domus '
p239
sg23
S'Non domus exosa est '
p240
sa(dp241
g1
S'nec nomina nostra requires, '
p242
sg3
S'quae Carmina vidit arantem, '
p243
sg2
S'quae talia vidit arantem, '
p244
sg5
S'quas Vates Incola vivit, '
p245
sg4
S'notus tibi carminis author, '
p246
sg7
S'quas nostro carmine gaudet, '
p247
sg6
S'quas Vates prodiit olim, '
p248
sg9
S'notus, quem diligis, author, '
p249
sg8
S'quas te veneratur, et audit, '
p250
sg10
S'quas pro te metra paravit, '
p251
sg12
S'qui scripsit, notus amicus, '
p252
sg11
S'notus, qui scribit, amicus, '
p253
sg14
S'gratus, qui metra paravit, '
p254
sg13
S'charus, qui carmine ludit, '
p255
sg16
S'multos tibi culta per annos, '
p256
sg15
S'multo sum cognitus usu, '
p257
sg18
S'qua degit carminis author, '
p258
sg17
S'chari, grati qui sodalis, '
p259
sg19
S'qua praesens littera prodit, '
p260
sg21
S'chari, gratique penates, '
p261
sg20
S'qod dulcis epistola venit, '
p262
sg22
S'scribentis stemma, manusque, '
p263
sg23
S'scriptoris dextra, genusque, '
p264
sa(dp265
g1
S'Tu mihi pars cordis '
p266
sg3
S'Semper eras Tutor '
p267
sg2
S'Tu mihi praesidium '
p268
sg5
S'Semper eras Pylades '
p269
sg4
S'Semper eras Ductor, '
p270
sg7
S'tu mihi cor cordis '
p271
sg6
S'Tu mihi cordis amor '
p272
sg9
S'Semper Nisus eras '
p273
sg8
S'Tu mihi dulcis amor '
p274
sg10
S'Tu mihi Patronus '
p275
sg12
S'Tu mihi Protector '
p276
sg11
S'Tu mihi Mecaenas '
p277
sg14
S'Tu grandis Fautor '
p278
sg13
S'Tu tutela mihi '
p279
sg16
S'Auxilio fueras '
p280
sg15
S'Tu Benefactor eras '
p281
sg18
S'Patronus mihi tu '
p282
sg17
S'Praesidium fueras '
p283
sg19
S'Tu mihi solamen '
p284
sg21
S'Ductor semper eras '
p285
sg20
S'Mecaenas fueras '
p286
sg22
S'Te colo fautorem, '
p287
sg23
S'Te colo Patronum '
p288
sa(dp289
g1
S'Delicicaeque meae. '
p290
sg3
S'Numinis ecce favor. '
p291
sg2
S'Gloria quanta mihi! '
p292
sg5
S'Theseus, alter ego. '
p293
sg4
S'Dux meus, alter ego. '
p294
sg7
S'Duxque, salusque mihi. '
p295
sg6
S'Duxque, salusque meis. '
p296
sg9
S'Lux mea, dulce decus. '
p297
sg8
S'Spes mea, dulce decus. '
p298
sg10
S'Lux mea, dextra mihi. '
p299
sg12
S'perge manere, precor. '
p300
sg11
S'gratia summa mihi. '
p301
sg14
S'quis neget ista mihi? '
p302
sg13
S'quod mihi nemo neget. '
p303
sg16
S'quod benefacta notant. '
p304
sg15
S'magne repende Deus! '
p305
sg18
S'quod mea Musa canit. '
p306
sg17
S'debeo cuncta tibi. '
p307
sg19
S'quod mea Musa canet. '
p308
sg21
S'non ego dignus eram. '
p309
sg20
S'tempus in omne mane. '
p310
sg22
S'talis et usque mane. '
p311
sg23
S'perge favere precor. '
p312
sa(dp313
g1
S'Justitiam sequeris '
p314
sg3
S'sectaris Themidem '
p315
sg2
S'Virtutem sequeris '
p316
sg5
S'Justitiam observas '
p317
sg4
S'Tu recti custos '
p318
sg7
S'Justitiam servas '
p319
sg6
S'Tu candoris amans '
p320
sg9
S'Cuique suum tribuis '
p321
sg8
S'Non nisi justa facis '
p322
sg10
S'Jura tueris amans '
p323
sg12
S'Consilio gravis es '
p324
sg11
S'Grandia facta geris '
p325
sg14
S'Consilio polles '
p326
sg13
S'Majestate Vales '
p327
sg16
S'Eloquio praestas '
p328
sg15
S'Polles consilio '
p329
sg18
S'Judicio praestas '
p330
sg17
S'Judicio polles '
p331
sg19
S'Polles ingenio '
p332
sg21
S'Laudari refugis '
p333
sg20
S'Ingenio praestas '
p334
sg22
S'Non tibi laudis amor '
p335
sg23
S'laudari renuis. '
p336
sa(dp337
g1
S'magna probitate coruscas, '
p338
sg3
S'famae mendacia rides, '
p339
sg2
S'multa pietate coruscas, '
p340
sg5
S'pietatis idoneus author, '
p341
sg4
S'legum nec amantior alter, '
p342
sg7
S'pietatem pectore spiras, '
p343
sg6
S'nulli pietate secundus, '
p344
sg9
S'tibi Christi nomen amori, '
p345
sg8
S'solidae pietatis alumnus, '
p346
sg10
S'pietas tibi plurima cordi, '
p347
sg12
S'sanctae pietatis imago es, '
p348
sg11
S'pietas te laudibus ornat, '
p349
sg14
S'pietas te nutrit alumnum, '
p350
sg13
S'probitatis laude coruscas, '
p351
sg16
S'totustque a Numine pendes, '
p352
sg15
S'servas mandata Tonantis, '
p353
sg18
S'pietas tibi maxima rerum, '
p354
sg17
S'tibi mens sapit integra coelum, '
p355
sg19
S'pietas tibi pedore fixa est, '
p356
sg21
S'concludis pedore coelum, '
p357
sg20
S'vera pietate Coruscas, '
p358
sg22
S'probitas te gaudet alumno, '
p359
sg23
S'pietas te gaudet Achate, '
p360
sa(dp361
g1
S'Haud te noxa premit '
p362
sg3
S'Noti vitiis traheris '
p363
sg2
S'Indolis es placidae '
p364
sg5
S'Numine digna sapis '
p365
sg4
S'Criminis innocuus '
p366
sg7
S'Grande decus patriae es '
p367
sg6
S'Exemplar morum es '
p368
sg9
S'Es purus scelesis '
p369
sg8
S'Integer es vitae '
p370
sg10
S'Expers tu sceleris '
p371
sg12
S'Marmore digna geris '
p372
sg11
S'Cedro digna geris '
p373
sg14
S'Te genus exornat '
p374
sg13
S'Cunctis diligeris '
p375
sg16
S'Devincis cunctos '
p376
sg15
S'Diligeris cunctis '
p377
sg18
S'Castior Hippolito es '
p378
sg17
S'Magnus in adversis '
p379
sg19
S'Quantum animo praestas! '
p380
sg21
S'Quis te digna canet? '
p381
sg20
S'Fortior adversis '
p382
sg22
S'Vis generosa tibi '
p383
sg23
S'Excellis cunctos '
p384
sa(dp385
g1
S'Spes tua sola Deus. '
p386
sg3
S'Lactea corda geris. '
p387
sg2
S'Candida corda geris. '
p388
sg5
S'Cor patientis habes. '
p389
sg4
S'Corda pudica geris. '
p390
sg7
S'Quot tibi mentis opes! '
p391
sg6
S'Non tibi nota Venus. '
p392
sg9
S'sydera mente geris. '
p393
sg8
S'pectore sucus abest. '
p394
sg10
S'sors bona semper amet. '
p395
sg12
S'celsius ire nequis. '
p396
sg11
S'semper ad alta volas. '
p397
sg14
S'mens tibi casta placet. '
p398
sg13
S'nomen ad astra vehis. '
p399
sg16
S'fama perennis erit. '
p400
sg15
S'mens tibi pura placet. '
p401
sg18
S'quam tibi larga manus! '
p402
sg17
S'non tibi parca manus. '
p403
sg19
S'non tibi fastus inest. '
p404
sg21
S'spes tua tota Deus. '
p405
sg20
S'te Cytherea fugit. '
p406
sg22
S'mens animosa tibi. '
p407
sg23
S'Dona quot alma tibi! '
p408
sa(dp409
g1
S'Dona tot alma tibi '
p410
sg3
S'Tot tibi sunt laudes '
p411
sg2
S'Tot tibi meritis opes '
p412
sg5
S'Laudes tot tibi sunt '
p413
sg4
S'Tot laudes tibi sunt '
p414
sg7
S'Tot decora alma tibi '
p415
sg6
S'Sunt tibi tot laudes '
p416
sg9
S'tot numeras dotes '
p417
sg8
S'Tot bona mentis habes '
p418
sg10
S'Tot dotes numeras '
p419
sg12
S'Sunt tot dona tibi '
p420
sg11
S'Tot sunt dona tibi '
p421
sg14
S'Tanta talenta tibi '
p422
sg13
S'Tot tibi virtutes '
p423
sg16
S'Fulges tot donis '
p424
sg15
S'Tot donis fulges '
p425
sg18
S'Ornant tot dotes '
p426
sg17
S'Tot dotes ornant '
p427
sg19
S'Tot dotes decorant '
p428
sg21
S'In te tot dotes '
p429
sg20
S'Dona tot exornant '
p430
sg22
S'Dona tot expoliunt '
p431
sg23
S'Tot fulges donis '
p432
sa(dp433
g1
S'quot fulgent sydera coelo, '
p434
sg3
S'natitant quot in aequore pisces, '
p435
sg2
S'numerat quot messis aristas, '
p436
sg5
S'numerant quot germina sylvae, '
p437
sg4
S'numerat quot germina Majus, '
p438
sg7
S'fulgent quot in aethere stellae, '
p439
sg6
S'stellae quot in aethere fulgent, '
p440
sg9
S'spargit quot lumina Phoebus, '
p441
sg8
S'numerat quot littus arenas, '
p442
sg10
S'volucres quot in aere cernis, '
p443
sg12
S'guttas quot continet imber, '
p444
sg11
S'radiis quot Phoebus abundat, '
p445
sg14
S'quot piscibus unda natatur, '
p446
sg13
S'quot fluctus aequora turbant, '
p447
sg16
S'quot guttas continet imber, '
p448
sg15
S'quot turbant aequora fluctus, '
p449
sg18
S'quot pocula Cyrrha ministrat, '
p450
sg17
S'quot flammas nutrit Apollo, '
p451
sg19
S'quot stellae in nocte nitescunt, '
p452
sg21
S'vigilant quot sydera coelo, '
p453
sg20
S'vigilant quot in aethere stellae, '
p454
sg22
S'quot Phoebus spicula mittit, '
p455
sg23
S'quot Phoebus lumina spargit, '
p456
sa(dp457
g1
S'horti quot flores, '
p458
sg3
S'poma quot autumnus, '
p459
sg2
S'quot Ver delitias, '
p460
sg5
S'quot Croesus gazas, '
p461
sg4
S'quot Croesus nummos, '
p462
sg7
S'quot motus coelum, '
p463
sg6
S'quot mundus partes, '
p464
sg9
S'quot partes mundus, '
p465
sg8
S'Orbis quot partes, '
p466
sg10
S'quot flores horti, '
p467
sg12
S'quot Mars tela vibrat, '
p468
sg11
S'quot Chloris flores, '
p469
sg14
S'gaudia quot coelum, '
p470
sg13
S'Mars quot tela vibrat, '
p471
sg16
S'sylvae quot frondes, '
p472
sg15
S'aestas quot spicas, '
p473
sg18
S'Pan quot nutrit oves, '
p474
sg17
S'gramina quot campus, '
p475
sg19
S'fert quot bruma nives, '
p476
sg21
S'botros autumnus, '
p477
sg20
S'quot nemora alta feras, '
p478
sg22
S'flumina quot mundus, '
p479
sg23
S'quot Thetis alma rates, '
p480
sa(dp481
g1
S'quotque Cilissa crocos. '
p482
sg3
S'quotque habet Ister aquas. '
p483
sg2
S'quotque minuta dies. '
p484
sg5
S'quot subit aura vices. '
p485
sg4
S'quot vehit Ister aquas. '
p486
sg7
S'puncta quot orbis habet. '
p487
sg6
S'quotque habet aura vices. '
p488
sg9
S'fulmina quotque Jovi. '
p489
sg8
S'fert quot Hymetus apes. '
p490
sg10
S'quotque Diana feras. '
p491
sg12
S'quot coquit aethna focos. '
p492
sg11
S'quot parit Hybla favos. '
p493
sg14
S'femina prata ferunt. '
p494
sg13
S'grana quot arva ferunt. '
p495
sg16
S'lumina quotque vices. '
p496
sg15
S'quotque momenta dies. '
p497
sg18
S'quotque habet Aethna focos. '
p498
sg17
S'quot nutrit aer aves. '
p499
sg19
S'grana quot arva gerunt. '
p500
sg21
S'quotque habet aer aves. '
p501
sg20
S'quot capit aura sonos. '
p502
sg22
S'quot capit sequor aquas. '
p503
sg23
S'Graecia quotque dolos. '
p504
sa(dp505
g1
S'si valeas, laetor, '
p506
sg3
S'Gaudeo, si valeas, '
p507
sg2
S'laetor, si valeas, '
p508
sg5
S'Vitane salva tibi? '
p509
sg4
S'Gaudeo, quando vales, '
p510
sg7
S'quae sors te recreat? '
p511
sg6
S'Prospera vita tibi? '
p512
sg9
S'Nil Medieo debes? '
p513
sg8
S'vita an salva tibi? '
p514
sg10
S'servet utrumque polus! '
p515
sg12
S'quae te facta beant? '
p516
sg11
S'quae tua conditio? '
p517
sg14
S'quam vitam vivis? '
p518
sg13
S'quis te status habet? '
p519
sg16
S'sospite te laetor, '
p520
sg15
S'edic, qui valeas? '
p521
sg18
S'servet te Numen! '
p522
sg17
S'quae te fata premunt? '
p523
sg19
S'qui, valeas, edic, '
p524
sg21
S'est tua sors mea sors, '
p525
sg20
S'te quis status habet? '
p526
sg22
S'qualis vita tibi? '
p527
sg23
S'Te quae fata premunt?  '
p528
sa(dp529
g1
S'mihi stat mea vita superstes, '
p530
sg3
S'sanus dego, atque beatus '
p531
sg2
S'salvus vivo, atque beatus, '
p532
sg5
S'me servant sydera sanum, '
p533
sg4
S'tua me fortuna beabit, '
p534
sg7
S'me procera fata gubernant, '
p535
sg6
S'servant me sydera salvum, '
p536
sg9
S'valeo, quod debeo fatis, '
p537
sg8
S'(superis sit gratia) vivo, '
p538
sg10
S'testor, me vivere sanum, '
p539
sg12
S'mea mens, corpusque beatur, '
p540
sg11
S'vitam traduco beatam, '
p541
sg14
S'sum mente, et corpore sanus, '
p542
sg13
S'superi mea vota secundant, '
p543
sg16
S'sum mente, et corpore sospes, '
p544
sg15
S'felix mihi volvitur hora, '
p545
sg18
S'morborum nescio vexas, '
p546
sg17
S'me nulla molestia vexat, '
p547
sg19
S'mihi Parca hucusque pepercit, '
p548
sg21
S'mihi mens in corpore salva, '
p549
sg20
S'non laeso ego corpore vivo, '
p550
sg22
S'si sors tibi prospera, vivo, '
p551
sg23
S'me sors recreabit amici,  '
p552
sa(dp553
g1
S'Dent superi votis '
p554
sg3
S'Det coelum votis '
p555
sg2
S'Aspirent votis '
p556
sg5
S'Accedant metitis '
p557
sg4
S'Det Numen votis '
p558
sg7
S'Moribus aspirent '
p559
sg6
S'Moribus accedant '
p560
sg9
S'Votis det coelum '
p561
sg8
S'Se jungant votis '
p562
sg10
S'Det Numen meritis '
p563
sg12
S'Votis aspirent '
p564
sg11
S'Votis det Numen '
p565
sg14
S'Dii meritis addant '
p566
sg13
S'Accedant votis '
p567
sg16
S'Dent superi meritis '
p568
sg15
S'Addant Dii meritis '
p569
sg18
S'Astra addant meritis '
p570
sg17
S'Astra addant votis '
p571
sg19
S'Dii meritis referant '
p572
sg21
S'Dii referant meritis '
p573
sg20
S'Accrescant meritis '
p574
sg22
S'Votis se socient '
p575
sg23
S'Se socient votis  '
p576
sa(dp577
g1
S'Prospera sata tuis. '
p578
sg3
S'vela secunda tuis. '
p579
sg2
S'Candida sata tuis. '
p580
sg5
S'fata benigna tuis. '
p581
sg4
S'prospera cuncta tuis. '
p582
sg7
S'tempora laeta tuis. '
p583
sg6
S'prospera laeta tuis. '
p584
sg9
S'jubila laeta tuis. '
p585
sg8
S'candida vela tuis. '
p586
sg10
S'secula longa tuis. '
p587
sg12
S'lustra beata tuis. '
p588
sg11
S'saecula multa tuis. '
p589
sg14
S'plurima laeta tuis. '
p590
sg13
S'saecla beata tuis. '
p591
sg16
S'gaudia longa tuis. '
p592
sg15
S'plurima lustra tuis. '
p593
sg18
S'gaudia mille tuis. '
p594
sg17
S'plurima dona tuis. '
p595
sg19
S'dona beata tuis. '
p596
sg21
S'prospera dona tuis. '
p597
sg20
S'munera larga tuis. '
p598
sg22
S'quaevis amica tuis. '
p599
sg23
S'quaevis amoena tuis.  '
p600
sa(dp601
g1
S'Sed quid deses agis? '
p602
sg3
S'cur vero stertis? '
p603
sg2
S'Sed quis torpor habet? '
p604
sg5
S'Ast quis torpor habet? '
p605
sg4
S'Desidiose tamen '
p606
sg7
S'Quid vero stertis? '
p607
sg6
S'Sed quem te memorem? '
p608
sg9
S'Sed quae causa subest? '
p609
sg8
S'Cur vero dormis ? '
p610
sg10
S'Sed quid, quaeso, siles? '
p611
sg12
S'Quaerere sed liceat, '
p612
sg11
S'Edic, quae causa est? '
p613
sg14
S'Sed mihi quid referes? '
p614
sg13
S'At quae causa latet? '
p615
sg16
S'Sed mihi dic causam, '
p616
sg15
S'Quaerere tene licet? '
p617
sg18
S'Quid vero esse putem? '
p618
sg17
S'Quid vero credam, '
p619
sg19
S'Cur autem stertis? '
p620
sg21
S'Quae te vincla tenent? '
p621
sg20
S'Ast ego quid credam? '
p622
sg22
S'Sed quid stertis iners? '
p623
sg23
S'Sed quam stertis iners?  '
p624
sa(dp625
g1
S'cur carmina scribere cessas? '
p626
sg3
S'tu fastidire Novenas? '
p627
sg2
S'tu fastidire Thaliam? '
p628
sg5
S'cur carmina fingere cessas? '
p629
sg4
S'tu linquere Apollinis arces? '
p630
sg7
S'numeros quin mittis amanti? '
p631
sg6
S'quare das otia Musis? '
p632
sg9
S'modulos cur optime ponis? '
p633
sg8
S'cur deses metra relinquis? '
p634
sg10
S'num tu desistere caeptis? '
p635
sg12
S'quid monte bivertice cedis? '
p636
sg11
S'cytharam cur Optime ponis? '
p637
sg14
S'num tu dare terga Camaenis? '
p638
sg13
S'tu docto abscedere colle? '
p639
sg16
S'facies divortia Musis? '
p640
sg15
S'Pindo tene eripis alto? '
p641
sg18
S'modulis tu absistere caeptis? '
p642
sg17
S'quid? tune repellere Musas? '
p643
sg19
S'num tu suspendere plectrum? '
p644
sg21
S'tu linquere culmirta Pindi? '
p645
sg20
S'capiti tu demere laurum? '
p646
sg22
S'tu cedere culmine Pindi? '
p647
sg23
S'calamo quid inerte quieseis? '
p648
sa(dp649
g1
S'Nasonis vincens '
p650
sg3
S'Phoebeos vincens '
p651
sg2
S'Virgilii vincens '
p652
sg5
S'Vincens Pierios '
p653
sg4
S'Vincens Aonios '
p654
sg7
S'Pieridum vincens '
p655
sg6
S'Aonidum vincens '
p656
sg9
S'Castalios vincens '
p657
sg8
S'Pegasidum vincens '
p658
sg10
S'Threycios vincens '
p659
sg12
S'Maeonios vincens '
p660
sg11
S'Castalidum vincens '
p661
sg14
S'Maeonidis vincens '
p662
sg13
S'Maronis vincens '
p663
sg16
S'Virgilii superans '
p664
sg15
S'Orpheos vincens '
p665
sg18
S'Phoebeos superans '
p666
sg17
S'Nasonis superans '
p667
sg19
S'Aonios superans '
p668
sg21
S'Pieridum superans '
p669
sg20
S'Pierios superans '
p670
sg22
S'Castalios superans '
p671
sg23
S'Aonidum superans '
p672
sa(dp673
g1
S'per tua metra sonos. '
p674
sg3
S'pollicis arte sonos. '
p675
sg2
S'per tua plectra sonos. '
p676
sg5
S'plectra canendo sonos. '
p677
sg4
S'si modulere, sonos. '
p678
sg7
S'Archipoeta sonos. '
p679
sg6
S'barbita tange, sonos. '
p680
sg9
S'per metra docta sonos. '
p681
sg8
S'dulciter arte sonos. '
p682
sg10
S'tangito plectra, sonos. '
p683
sg12
S'(sic mihi Apollo) sonos. '
p684
sg11
S'arte placente sonos. '
p685
sg14
S'dodus in arte sonos. '
p686
sg13
S'clarus in arte sonos. '
p687
sg16
S'orbe stupente sonos. '
p688
sg15
S'arte, metrisque sonos. '
p689
sg18
S'arte favente sonos. '
p690
sg17
S'nobilis arte sonos. '
p691
sg19
S'arte, lyraque sonos. '
p692
sg21
S'gnarus in arte sonos. '
p693
sg20
S'carmen arando sonos. '
p694
sg22
S'(testis Apollo) sonos. '
p695
sg23
S'Nonne Minerva? sonos. '
p696
sa(dp697
g1
S'Excute torporem '
p698
sg3
S'heu! fuge desidiam '
p699
sg2
S'non mora te teneat '
p700
sg5
S'En! labor invitat '
p701
sg4
S'otia pelle, precor '
p702
sg7
S'Eja agedum, suda, '
p703
sg6
S'Eja age, celsa vocant '
p704
sg9
S'da mihi quod cupio '
p705
sg8
S'quid multis opus est? '
p706
sg10
S'si tibi sanctus amor '
p707
sg12
S'celsos sume animos '
p708
sg11
S'Adde tibi stimulos '
p709
sg14
S'si quid vota valent '
p710
sg13
S'si tibi charus ego '
p711
sg16
S'jam mihi redde vices '
p712
sg15
S'si me sidus amas '
p713
sg18
S'fac, te digna geras '
p714
sg17
S'si tibi dulcis honor '
p715
sg19
S'si quid possit amans '
p716
sg21
S'quod decet, illud agas '
p717
sg20
S'somnum pelle, precor '
p718
sg22
S'da, quod poscit amans '
p719
sg23
S'Altior assurgas '
p720
sa(dp721
g1
S'Cytharamque lyramque resume '
p722
sg3
S'praestat jam ludere versu '
p723
sg2
S'numeris jam verba coerce '
p724
sg5
S'doctos imitare Poetas '
p725
sg4
S'plectrum cytharamque resume '
p726
sg7
S'jucundis lude Camaenis '
p727
sg6
S'velox in carmina surge '
p728
sg9
S'jam chartam versibus imple '
p729
sg8
S'tua constet epistola versu '
p730
sg10
S'responsum versibus orna '
p731
sg12
S'metris tua littera constet '
p732
sg11
S'resonent tua barbita cantu '
p733
sg14
S'versu dignare sodalem '
p734
sg13
S'tua sint responsa Poetae '
p735
sg16
S'Phoebus tibi plectra ministrat '
p736
sg15
S'cantu solare Poetam '
p737
sg18
S'mecum jam Pallade certa '
p738
sg17
S'repleat tua pectora Phoebus '
p739
sg19
S'lubeat me vincere versu '
p740
sg21
S'resonantia barbita tange '
p741
sg20
S'resonet tua fistula cantu '
p742
sg22
S'da docto ex pollice carmen '
p743
sg23
S'Pindi mihi pocula praebe '
p744
sa(dp745
g1
S'Vati Castalides '
p746
sg3
S'Numina Parnassi '
p747
sg2
S'Castalides Vati '
p748
sg5
S'agmina Musarum '
p749
sg4
S'Aonides Vati '
p750
sg7
S'et tibi Pierides '
p751
sg6
S'et Musae Vati '
p752
sg9
S'Musae carminibus '
p753
sg8
S'Carminibus Musae '
p754
sg10
S'culmina Parnassi '
p755
sg12
S'Musarum genii '
p756
sg11
S'Castalii sontes '
p757
sg14
S'et Nymphae Aoniae '
p758
sg13
S'Castaliaeque Deae '
p759
sg16
S'Aonidesque tibi '
p760
sg15
S'Nympharumque chorus '
p761
sg18
S'et tibi Castalides '
p762
sg17
S'Castalidesque tibi '
p763
sg19
S'et tibi quot Musas '
p764
sg21
S'atque tibi Musae '
p765
sg20
S'terra polusque tibi '
p766
sg22
S'Pieridumque chorus '
p767
sg23
S'Aonidesque Deae '
p768
sa(dp769
g1
S'Laurea secta ferent. '
p770
sg3
S'munera digna ferent. '
p771
sg2
S'praemia digna ferent. '
p772
sg5
S'jubila magna canent. '
p773
sg4
S'splendida dona ferent. '
p774
sg7
S'laurea dona ferent. '
p775
sg6
S'serta decora ferent. '
p776
sg9
S'florida serta ferent. '
p777
sg8
S'docta trophaea ferent. '
p778
sg10
S'non nisi magna ferent. '
p779
sg12
S'munera clara dabunt. '
p780
sg11
S'digna tributa dabunt. '
p781
sg14
S'praemia laude dabunt. '
p782
sg13
S'laudis agalma struent. '
p783
sg16
S'munera mille dabunt. '
p784
sg15
S'dona decora dabunt. '
p785
sg18
S'mille trophaea dabunt. '
p786
sg17
S'dona sat ampla dabunt. '
p787
sg19
S'jubila mille canent. '
p788
sg21
S'praemia magna ferent. '
p789
sg20
S'laude tributa dabunt. '
p790
sg22
S'dona opulenta ferent. '
p791
sg23
S'plurima dona ferent. '
p792
sa(dp793
g1
S'Nulla pericla time, '
p794
sg3
S'Cuncto parce metu, '
p795
sg2
S'Non est quod metuas, '
p796
sg5
S'Omnem pelle metum, '
p797
sg4
S'Quod timeas procul est, '
p798
sg7
S'Pax recreat populos, '
p799
sg6
S'Pacis oliva viret, '
p800
sg9
S'Pax optata viret, '
p801
sg8
S'Pax civem recreat, '
p802
sg10
S'Pax patriam recreat, '
p803
sg12
S'Otia pacis eunt, '
p804
sg11
S'Tempora pacis eunt, '
p805
sg14
S'Fessos pax recreat, '
p806
sg13
S'Tempus adest pacis, '
p807
sg16
S'Pacis dona virent, '
p808
sg15
S'Orbem pax recreat, '
p809
sg18
S'Ne metue insidias, '
p810
sg17
S'Copia pacis adest, '
p811
sg19
S'Pacis adest requies, '
p812
sg21
S'Non est, quod timeas, '
p813
sg20
S'Pax patriae rediit, '
p814
sg22
S'Pax optata redit, '
p815
sg23
S'Regnat pacis amor, '
p816
sa(dp817
g1
S'Mars et Bellona quiescunt, '
p818
sg3
S'cessarunt praelia Martis, '
p819
sg2
S'Martis jam praelia cessant, '
p820
sg5
S'Martis furor exulat orbe, '
p821
sg4
S'cessarunt bella Gradivi, '
p822
sg7
S'Martis certamina cessant, '
p823
sg6
S'Bellonae gaudia cessant, '
p824
sg9
S'positis Mars abstinet armis, '
p825
sg8
S'Mars saeva recondidit arma, '
p826
sg10
S'jam pugnae, jam arma quiescunt, '
p827
sg12
S'spectarunt praelia sinem, '
p828
sg11
S'campo Bellona recessit, '
p829
sg14
S'clausit sua limina Janus, '
p830
sg13
S'bellorum taedia cessant, '
p831
sg16
S'Martis deferbuit ira, '
p832
sg15
S'Janus sua limina clausit, '
p833
sg18
S'saevis Mars abstinet armis, '
p834
sg17
S'posuit Bellona furorem, '
p835
sg19
S'posuit saeva arma Gradivus, '
p836
sg21
S'posuit Bellona flagellum, '
p837
sg20
S'tandem Mars continet arma, '
p838
sg22
S'fessis Mars abstinet armis, '
p839
sg23
S'Mars fessa recondidit arma, '
p840
sa(dp841
g1
S'Securam perget '
p842
sg3
S'Inveniet tutam '
p843
sg2
S'Securamque teret '
p844
sg5
S'Securam incedet '
p845
sg4
S'Inveniet suetam '
p846
sg7
S'Inveniet solitam '
p847
sg6
S'Securam inveniet '
p848
sg9
S'Comperiet tutam '
p849
sg8
S'Inveniet vacuam '
p850
sg10
S'Comperiet vacuam '
p851
sg12
S'Atque teret tutam '
p852
sg11
S'Securamque premet '
p853
sg14
S'Et facilem inveniet '
p854
sg13
S'Inveniet facilem '
p855
sg16
S'Et tutam inveniet '
p856
sg15
S'Intrabit tutam '
p857
sg18
S'Et facilem incedet '
p858
sg17
S'Et vacuam aspiciet '
p859
sg19
S'Nec teret infaustam '
p860
sg21
S'Ibit securam '
p861
sg20
S'Nec teret infestam '
p862
sg22
S'Tendet per tutam '
p863
sg23
S'Per solitam inveniet '
p864
sa(dp865
g1
S'Littera missa viam. '
p866
sg3
S'missa tabella viam. '
p867
sg2
S'littera chara viam. '
p868
sg5
S'littera sida viam. '
p869
sg4
S'cauta Camaena viam. '
p870
sg7
S'nuncia charta viam. '
p871
sg6
S'docta tabella viam. '
p872
sg9
S'gnara Thalia viam. '
p873
sg8
S'cauta Thalia viam. '
p874
sg10
S'littera crebra viam. '
p875
sg12
S'sida Camaena viam. '
p876
sg11
S'crebra tabella viam. '
p877
sg14
S'clausa tabella viam. '
p878
sg13
S'Musa pudica viam. '
p879
sg16
S'grata Thalia viam. '
p880
sg15
S'littera grata viam. '
p881
sg18
S'charta perita viam. '
p882
sg17
S'charta modesta viam. '
p883
sg19
S'charta legenda viam. '
p884
sg21
S'littera amata viam. '
p885
sg20
S'charta remissa viam. '
p886
sg22
S'sida ministra viam. '
p887
sg23
S'charta ministra viam. '
p888
sa(dp889
g1
S'Succedet nostris '
p890
sg3
S'Haec erit in nostris '
p891
sg2
S'Adveniet nostris '
p892
sg5
S'Crede, aderit nostris '
p893
sg4
S'Haec aderit nostris '
p894
sg7
S'Illa aderit nostris '
p895
sg6
S'Haec veniet nostris '
p896
sg9
S'Ista erit in nostris '
p897
sg8
S'Illa erit in nostris '
p898
sg10
S'Ipsa aderit nostris '
p899
sg12
S'Advenietque meis '
p900
sg11
S'Succedetque meis '
p901
sg14
S'Sistet se nostris '
p902
sg13
S'Venerit illa meis '
p903
sg16
S'Mittetur nostris '
p904
sg15
S'Et fiet nostris '
p905
sg18
S'Accidet illa meis '
p906
sg17
S'Accidet in nostris '
p907
sg19
S'Sistetur nostris '
p908
sg21
S'Accedet nostris '
p909
sg20
S'Culta erit in nostris '
p910
sg22
S'Accedetque meis '
p911
sg23
S'Adsit praesto meis '
p912
sa(dp913
g1
S'hospes gratissima tectis '
p914
sg3
S'ter grata Penatibus hospes '
p915
sg2
S'hospes charissima tectis '
p916
sg5
S'aptata Penatibus hospes '
p917
sg4
S'dilecta Penatibus hospes '
p918
sg7
S'hospes gratissima terris '
p919
sg6
S'ter chara Penatibus hospes '
p920
sg9
S'jucunda Penatibus hospes '
p921
sg8
S'hospes dulcissima tectis '
p922
sg10
S'gratissima sedibus hospes '
p923
sg12
S'laetissima sedibus hospes '
p924
sg11
S'charissima sedibus hospes '
p925
sg14
S'dulcis penetralibus hospes '
p926
sg13
S'dignissima sedibus hospes '
p927
sg16
S'felix penetralibus hospes '
p928
sg15
S'peramata Penatibus hospes '
p929
sg18
S'peramica Penatibus hospes '
p930
sg17
S'praestans penetralibus hospes '
p931
sg19
S'speciosa Penatibus hospes '
p932
sg21
S'hospes laetissima tectis '
p933
sg20
S'benedicta Penatibus hospes '
p934
sg22
S'lectissima sedibus hospes '
p935
sg23
S'dulcissima sedibus hospes '
p936
sa(dp937
g1
S'Litterulisque tuis '
p938
sg3
S'Carminibusque tuis '
p939
sg2
S'Versiculisque tuis '
p940
sg5
S'Pulchelliae dextrae '
p941
sg4
S'Formosis manibus '
p942
sg7
S'Illiusque notis '
p943
sg6
S'Pulchellis manibus '
p944
sg9
S'Mellitisque metris '
p945
sg8
S'Dulcisonisque metris '
p946
sg10
S'Formosisque notis '
p947
sg12
S'Cujus ego dextras '
p948
sg11
S'Cujus ego manibus '
p949
sg14
S'Formosaeque Deae '
p950
sg13
S'Cujus ego formae '
p951
sg16
S'Pulchellaeque Deae '
p952
sg15
S'Formosaeque notis '
p953
sg18
S'Hujus ego dextrae '
p954
sg17
S'Pulchellaeque notis '
p955
sg19
S'Hujus ego manibus '
p956
sg21
S'Hujus ego labris '
p957
sg20
S'Artifici dextrae '
p958
sg22
S'Artificique Deae '
p959
sg23
S'Formosisque labris '
p960
sa(dp961
g1
S'basia mille feram. '
p962
sg3
S'basia mille dabo. '
p963
sg2
S'suavia mille feram. '
p964
sg5
S'suavia blanda dabo. '
p965
sg4
S'suavia mille dabo. '
p966
sg7
S'suavia blanda feram. '
p967
sg6
S'basia blanda dabo. '
p968
sg9
S'basia multa dabo. '
p969
sg8
S'basia blanda feram. '
p970
sg10
g969
sg12
S'basia casta feram. '
p971
sg11
S'basia casta dabo. '
p972
sg14
S'suavia casta feram. '
p973
sg13
S'suavia casta dabo. '
p974
sg16
S'basia pulchra feram. '
p975
sg15
S'basia pulchra dabo. '
p976
sg18
S'suavia pulchra feram. '
p977
sg17
S'suavia pulchra dabo. '
p978
sg19
S'suavia plura feram. '
p979
sg21
S'basia summa seram '
p980
sg20
S'basia summa dabo. '
p981
sg22
S'suavia sancta dabo. '
p982
sg23
S'suavia sancta feram. '
p983
sa(dp984
g1
S'Sed quo delabor? '
p985
sg3
S'Non jam plura licent '
p986
sg2
S'Quo feror imprudens? '
p987
sg5
S'Sed sacis est tandem '
p988
sg4
S'Non jam plura lubent '
p989
sg7
S'Phoebus plura vetat '
p990
sg6
S'Plura vetat tempus '
p991
sg9
S'Non jam plura decent '
p992
sg8
S'Plura vetat Phoebus '
p993
sg10
S'Tandem verba premo '
p994
sg12
S'Hoc tibi sufficiet '
p995
sg11
S'Haec tibi sufficient '
p996
sg14
S'Jam satis est, claudo, '
p997
sg13
S'Cantatum satis est '
p998
sg16
S'Nec mihi plura licent '
p999
sg15
S'Phoebus plura negat '
p1000
sg18
S'Pluribus abstineo '
p1001
sg17
S'Sed quo Musa rapis? '
p1002
sg19
S'Jam non plura canam '
p1003
sg21
S'Plura negat Phoebus '
p1004
sg20
S'Jam suspendo lyram '
p1005
sg22
S'Claudere Phoebe jubes '
p1006
sg23
S'Conticeo tandem '
p1007
sa(dp1008
g1
S'Ne lassem longior aures, '
p1009
sg3
S'non lasso fusior aures, '
p1010
sg2
S'ne te per plura fatigem, '
p1011
sg5
S'Jam longior esse nequibo, '
p1012
sg4
S'ne tundam fusior aurem, '
p1013
sg7
S'satis est, mea penna quiesce, '
p1014
sg6
S'ne crescat epistola cursu, '
p1015
sg9
S'Pindi jam deficit unda, '
p1016
sg8
S'ne penna molesta fatiget, '
p1017
sg10
S'non littera longa molestet, '
p1018
sg12
S'nunc urget epistola finem, '
p1019
sg11
S'jam Pindus flumina clausit, '
p1020
sg14
S'non ultra penna fatiget, '
p1021
sg13
S'ne sit tibi penna molesta, '
p1022
sg16
S'scripsi, quae scripta volebam, '
p1023
sg15
S'ne taedia penna facessat, '
p1024
sg18
S'ne garrula penna fatiget, '
p1025
sg17
S'ne tundam garrulus aures, '
p1026
sg19
S'Musae sat prata biberunt, '
p1027
sg21
S'jam clausit flumina Pindus, '
p1028
sg20
S'fontes jam claudite Musae, '
p1029
sg22
S'jam Pindum claude Thalia, '
p1030
sg23
S'jam fontes claude Thalia, '
p1031
sa(dp1032
g1
S'Dico consuetum, '
p1033
sg3
S'Restat, ut adscribam, '
p1034
sg2
S'Dico tibi solitum, '
p1035
sg5
S'Consuetum adscribo, '
p1036
sg4
S'Restat adhuc addam, '
p1037
sg7
S'Sit tibi cura mei, '
p1038
sg6
S'Consuetum appono, '
p1039
sg9
S'Accino consuetum, '
p1040
sg8
S'Accipe consuetum, '
p1041
sg10
S'Appono solitum, '
p1042
sg12
S'Addo consuetum, '
p1043
sg11
S'Adscribo solitum, '
p1044
sg14
S'Tu cape consuetum, '
p1045
sg13
S'Hoc unum liceat, '
p1046
sg16
S'Assuetum dico, '
p1047
sg15
S'Tu cape sis solitum, '
p1048
sg18
S'Ex animo dico, '
p1049
sg17
S'Addo, quod usus habet, '
p1050
sg19
S'Audi consuetum, '
p1051
sg21
S'Affigo solitum, '
p1052
sg20
S'Hoc solum dico, '
p1053
sg22
S'Consuetum affigo, '
p1054
sg23
S'Percipe consuetum, '
p1055
sa(dp1056
g1
S'dulcis amice vale! '
p1057
sg3
S'grandis amice vale! '
p1058
sg2
S'suavis amice vale! '
p1059
sg5
S'vive, viresce, vale! '
p1060
sg4
S'magne Patrone vale! '
p1061
sg7
S'spes mea tota vale! '
p1062
sg6
S'chare Patrone vale! '
p1063
sg9
S'semper amice vale! '
p1064
sg8
S'semper et usque vale! '
p1065
sg10
S'semper amate vale! '
p1066
sg12
S'suavis ocelle vale! '
p1067
sg11
S'semper amande vale! '
p1068
sg14
S'sanus amice vale! '
p1069
sg13
S'summe Patrone vale! '
p1070
sg16
S'clare Poeta vale! '
p1071
sg15
S'vive Patrone vale! '
p1072
sg18
S'magne Poeta vale! '
p1073
sg17
S'fautor amice vale! '
p1074
sg19
S'docte Poeta vale! '
p1075
sg21
S'fautor amate vale! '
p1076
sg20
S'nostra corona vale! '
p1077
sg22
S'dulcis ocelle vale! '
p1078
sg23
S'lux mea, spesque vale! '
p1079
satp1080
.